; Function Attrs: mustprogress nofree norecurse nosync nounwind willreturn memory(argmem: readwrite) uwtable
define void @stbhw__set_pixel(ptr noundef writeonly captures(none) %0, i32 noundef %1, i32 noundef %2, i32 noundef %3, ptr noundef readonly captures(none) %4) local_unnamed_addr #3 {
  %6 = mul nsw i32 %3, %1
  %7 = sext i32 %6 to i64
  %8 = getelementptr inbounds i8, ptr %0, i64 %7
  %9 = mul nsw i32 %2, 3
  %10 = sext i32 %9 to i64
  %11 = getelementptr inbounds i8, ptr %8, i64 %10
  tail call void @llvm.memcpy.p0.p0.i64(ptr noundef nonnull align 1 dereferenceable(3) %11, ptr noundef nonnull align 1 dereferenceable(3) %4, i64 3, i1 false)
  ret void
}